; Function Attrs: mustprogress nounwind uwtable
define noundef nonnull align 8 dereferenceable(48) ptr @_ZN6icu_7513LocaleBuilder15clearExtensionsEv(ptr noundef nonnull returned align 8 dereferenceable(48) %this) local_unnamed_addr #0 align 2 {
entry:
  %extensions_ = getelementptr inbounds i8, ptr %this, i64 40
  %0 = load ptr, ptr %extensions_, align 8
  %isnull = icmp eq ptr %0, null
  br i1 %isnull, label %delete.end, label %delete.notnull

delete.notnull:                                   ; preds = %entry
  %vtable = load ptr, ptr %0, align 8
  %vfn = getelementptr inbounds i8, ptr %vtable, i64 8
  %1 = load ptr, ptr %vfn, align 8
  tail call void %1(ptr noundef nonnull align 8 dereferenceable(217) %0) #13
  br label %delete.end

delete.end:                                       ; preds = %delete.notnull, %entry
  store ptr null, ptr %extensions_, align 8
  ret ptr %this
}